target datalayout = "e-m:e-p270:32:32-p271:32:32-p272:64:64-i64:64-i128:128-f80:128-n8:16:32:64-S128"
target triple = "x86_64-pc-linux-gnu"

; Function Attrs: inlinehint mustprogress nounwind uwtable
define internal noundef signext i8 @_ZL9U_FAILURE10UErrorCode(i32 noundef %0) #2 {
  %2 = alloca i32, align 4
  store i32 %0, ptr %2, align 4, !tbaa !15
  %3 = load i32, ptr %2, align 4, !tbaa !15
  %4 = icmp sgt i32 %3, 0
  %5 = zext i1 %4 to i8
  ret i8 %5
}

; Function Attrs: mustprogress uwtable
define void @_ZN6icu_7724DateTimePatternGenerator23consumeShortTimePatternERKNS_13UnicodeStringER10UErrorCode(ptr noundef nonnull align 8 dereferenceable(4796) %0, ptr noundef nonnull align 8 dereferenceable(64) %1, ptr noundef nonnull align 4 dereferenceable(4) %2) #1 align 2 {
  %4 = alloca ptr, align 8
  %5 = alloca ptr, align 8
  %6 = alloca ptr, align 8
  store ptr %0, ptr %4, align 8, !tbaa !23
  store ptr %1, ptr %5, align 8, !tbaa !60
  store ptr %2, ptr %6, align 8, !tbaa !22
  %7 = load ptr, ptr %4, align 8
  %8 = load ptr, ptr %6, align 8, !tbaa !22
  %9 = load i32, ptr %8, align 4, !tbaa !15
  %10 = call noundef signext i8 @_ZL9U_FAILURE10UErrorCode(i32 noundef %9)
  %11 = icmp ne i8 %10, 0
  br i1 %11, label %12, label %13

12:                                               ; preds = %3
  br label %16

13:                                               ; preds = %3
  %14 = load ptr, ptr %5, align 8, !tbaa !60
  %15 = load ptr, ptr %6, align 8, !tbaa !22
  call void @_ZN6icu_7724DateTimePatternGenerator9hackTimesERKNS_13UnicodeStringER10UErrorCode(ptr noundef nonnull align 8 dereferenceable(4796) %7, ptr noundef nonnull align 8 dereferenceable(64) %14, ptr noundef nonnull align 4 dereferenceable(4) %15)
  br label %16

16:                                               ; preds = %13, %12
  ret void
}