; Function Attrs: mustprogress uwtable
define void @_ZN6icu_7724DateTimePatternGenerator23consumeShortTimePatternERKNS_13UnicodeStringER10UErrorCode(ptr noundef nonnull readonly align 8 captures(none) dereferenceable(4796) %0, ptr noundef nonnull align 8 dereferenceable(64) %1, ptr noundef nonnull align 4 captures(none) dereferenceable(4) %2) local_unnamed_addr #1 align 2 {
  %4 = load i32, ptr %2, align 4, !tbaa !13
  %5 = icmp slt i32 %4, 1
  br i1 %5, label %6, label %7

6:                                                ; preds = %3
  tail call void @_ZN6icu_7724DateTimePatternGenerator9hackTimesERKNS_13UnicodeStringER10UErrorCode(ptr noundef nonnull align 8 dereferenceable(4796) %0, ptr noundef nonnull align 8 dereferenceable(64) %1, ptr noundef nonnull align 4 dereferenceable(4) %2)
  br label %7

7:                                                ; preds = %3, %6
  ret void
}